; Function Attrs: nofree norecurse nosync nounwind memory(argmem: readwrite) uwtable
define internal void @compute_sat8(ptr noundef readonly captures(none) %0, i32 noundef %1, i32 noundef %2, i32 noundef %3, ptr noundef captures(none) %4, i32 noundef %5) #5 {
  %7 = ashr i32 %5, 2
  %8 = sext i32 %7 to i64
  %9 = icmp sgt i32 %3, 0
  br i1 %9, label %.preheader.lr.ph, label %._crit_edge34

.preheader.lr.ph:                                 ; preds = %6
  %10 = icmp sgt i32 %2, 1
  %11 = sext i32 %1 to i64
  br i1 %10, label %.preheader.us.preheader, label %._crit_edge34

.preheader.us.preheader:                          ; preds = %.preheader.lr.ph
  %wide.trip.count = zext nneg i32 %2 to i64
  br label %.preheader.us

.preheader.us:                                    ; preds = %.preheader.us.preheader, %._crit_edge.us
  %.02633.us.pn = phi ptr [ %.02633.us, %._crit_edge.us ], [ %4, %.preheader.us.preheader ]
  %.02532.us = phi i32 [ %21, %._crit_edge.us ], [ 0, %.preheader.us.preheader ]
  %.02731.us = phi ptr [ %20, %._crit_edge.us ], [ %0, %.preheader.us.preheader ]
  %.02633.us = getelementptr inbounds i32, ptr %.02633.us.pn, i64 %8
  %invariant.gep.us = getelementptr i8, ptr %.02731.us, i64 -1
  br label %12

12:                                               ; preds = %.preheader.us, %12
  %indvars.iv = phi i64 [ 1, %.preheader.us ], [ %indvars.iv.next, %12 ]
  %.02428.us = phi i32 [ 0, %.preheader.us ], [ %15, %12 ]
  %gep.us = getelementptr i8, ptr %invariant.gep.us, i64 %indvars.iv
  %13 = load i8, ptr %gep.us, align 1, !tbaa !59
  %14 = zext i8 %13 to i32
  %15 = add i32 %.02428.us, %14
  %16 = getelementptr inbounds nuw i32, ptr %.02633.us.pn, i64 %indvars.iv
  %17 = load i32, ptr %16, align 4, !tbaa !51
  %18 = add i32 %15, %17
  %19 = getelementptr inbounds nuw i32, ptr %.02633.us, i64 %indvars.iv
  store i32 %18, ptr %19, align 4, !tbaa !51
  %indvars.iv.next = add nuw nsw i64 %indvars.iv, 1
  %exitcond.not = icmp eq i64 %indvars.iv.next, %wide.trip.count
  br i1 %exitcond.not, label %._crit_edge.us, label %12, !llvm.loop !73

._crit_edge.us:                                   ; preds = %12
  %20 = getelementptr inbounds i8, ptr %.02731.us, i64 %11
  %21 = add nuw nsw i32 %.02532.us, 1
  %exitcond37.not = icmp eq i32 %21, %3
  br i1 %exitcond37.not, label %._crit_edge34, label %.preheader.us, !llvm.loop !74

._crit_edge34:                                    ; preds = %._crit_edge.us, %.preheader.lr.ph, %6
  ret void
}